; Function Attrs: mustprogress nofree norecurse nosync nounwind willreturn memory(argmem: read) uwtable
define noundef double @_ZNK32pxrInternal_v0_24__pxrReserved__10GfMatrix2d14GetDeterminantEv(ptr noundef nonnull readonly align 8 captures(none) dereferenceable(32) %0) local_unnamed_addr #6 align 2 {
  %2 = load double, ptr %0, align 8
  %3 = getelementptr inbounds nuw i8, ptr %0, i64 16
  %4 = getelementptr inbounds nuw i8, ptr %0, i64 24
  %5 = load double, ptr %4, align 8
  %6 = getelementptr inbounds nuw i8, ptr %0, i64 8
  %7 = load double, ptr %6, align 8
  %8 = load double, ptr %3, align 8
  %9 = fneg double %8
  %10 = fmul double %7, %9
  %11 = tail call double @llvm.fmuladd.f64(double %2, double %5, double %10)
  ret double %11
}